(lp0
(S'cppflags'
p1
ccopy_reg
_reconstructor
p2
(cino.utils
SpaceList
p3
c__builtin__
list
p4
(lp5
S'-mmcu=atmega328p'
p6
aS'-DF_CPU=16000000L'
p7
aS'-DARDUINO=105'
p8
aS'-I/usr/share/arduino/hardware/arduino/cores/arduino'
p9
aS'-ffunction-sections'
p10
aS'-fdata-sections'
p11
aS'-g'
p12
aS'-Os'
p13
aS'-w'
p14
aS'-I/usr/share/arduino/hardware/arduino/variants/standard'
p15
aS'-Ilib/Adafruit_NeoPixel-master'
p16
aS'-I/usr/share/arduino/hardware/arduino/cores/arduino'
p17
aS'-I/usr/share/arduino/hardware/arduino/cores/arduino/avr-libc'
p18
atp19
Rp20
tp21
a(S'cxx'
p22
S'/usr/share/arduino/hardware/tools/avr/bin/avr-g++'
p23
tp24
a(S'build_dir'
p25
S'.build/uno'
p26
tp27
a(S'avrdude'
p28
S'/usr/share/arduino/hardware/tools/avrdude'
p29
tp30
a(S'ar'
p31
S'/usr/share/arduino/hardware/tools/avr/bin/avr-ar'
p32
tp33
a(S'names'
p34
(dp35
S'cpp'
p36
S'%s.cpp'
p37
sS'obj'
p38
S'%s.o'
p39
sS'lib'
p40
S'lib%s.a'
p41
sS'deps'
p42
S'%s.d'
p43
stp44
a(S'ldflags'
p45
g2
(g3
g4
(lp46
g6
aS'-Wl,-Os'
p47
aS'-Wl,--gc-sections'
p48
atp49
Rp50
tp51
a(S'arduino_lib_version'
p52
g2
(cino.environment
Version
p53
c__builtin__
tuple
p54
(I1
I0
I5
tp55
tp56
Rp57
tp58
a(S'objcopy'
p59
S'/usr/share/arduino/hardware/tools/avr/bin/avr-objcopy'
p60
tp61
a(S'board_models'
p62
cino.environment
BoardModels
p63
((lp64
(lp65
S'uno'
p66
a(dp67
S'bootloader'
p68
(dp69
S'extended_fuses'
p70
S'0x05'
p71
sS'high_fuses'
p72
S'0xde'
p73
sS'low_fuses'
p74
S'0xff'
p75
sS'lock_bits'
p76
S'0x0F'
p77
sS'file'
p78
S'optiboot_atmega328.hex'
p79
sS'path'
p80
S'optiboot'
p81
sS'unlock_bits'
p82
S'0x3F'
p83
ssS'build'
p84
(dp85
S'core'
p86
S'arduino'
p87
sS'mcu'
p88
S'atmega328p'
p89
sS'f_cpu'
p90
S'16000000L'
p91
sS'variant'
p92
S'standard'
p93
ssS'name'
p94
S'Arduino Uno'
p95
sS'upload'
p96
(dp97
S'speed'
p98
S'115200'
p99
sS'maximum_size'
p100
S'32256'
p101
sS'protocol'
p102
S'arduino'
p103
ssaa(lp104
S'atmega328'
p105
a(dp106
S'bootloader'
p107
(dp108
S'extended_fuses'
p109
S'0x05'
p110
sS'high_fuses'
p111
S'0xDA'
p112
sS'low_fuses'
p113
S'0xFF'
p114
sS'lock_bits'
p115
S'0x0F'
p116
sS'file'
p117
S'ATmegaBOOT_168_atmega328.hex'
p118
sS'path'
p119
S'atmega'
p120
sS'unlock_bits'
p121
S'0x3F'
p122
ssS'build'
p123
(dp124
S'core'
p125
S'arduino'
p126
sS'mcu'
p127
S'atmega328p'
p128
sS'f_cpu'
p129
S'16000000L'
p130
sS'variant'
p131
S'standard'
p132
ssS'name'
p133
S'Arduino Duemilanove w/ ATmega328'
p134
sS'upload'
p135
(dp136
S'speed'
p137
S'57600'
p138
sS'maximum_size'
p139
S'30720'
p140
sS'protocol'
p141
S'arduino'
p142
ssaa(lp143
S'diecimila'
p144
a(dp145
S'bootloader'
p146
(dp147
S'extended_fuses'
p148
S'0x00'
p149
sS'high_fuses'
p150
S'0xdd'
p151
sS'low_fuses'
p152
S'0xff'
p153
sS'lock_bits'
p154
S'0x0F'
p155
sS'file'
p156
S'ATmegaBOOT_168_diecimila.hex'
p157
sS'path'
p158
S'atmega'
p159
sS'unlock_bits'
p160
S'0x3F'
p161
ssS'build'
p162
(dp163
S'core'
p164
S'arduino'
p165
sS'mcu'
p166
S'atmega168'
p167
sS'f_cpu'
p168
S'16000000L'
p169
sS'variant'
p170
S'standard'
p171
ssS'name'
p172
S'Arduino Diecimila or Duemilanove w/ ATmega168'
p173
sS'upload'
p174
(dp175
S'speed'
p176
S'19200'
p177
sS'maximum_size'
p178
S'14336'
p179
sS'protocol'
p180
S'arduino'
p181
ssaa(lp182
S'nano328'
p183
a(dp184
S'bootloader'
p185
(dp186
S'extended_fuses'
p187
S'0x05'
p188
sS'high_fuses'
p189
S'0xDA'
p190
sS'low_fuses'
p191
S'0xFF'
p192
sS'lock_bits'
p193
S'0x0F'
p194
sS'file'
p195
S'ATmegaBOOT_168_atmega328.hex'
p196
sS'path'
p197
S'atmega'
p198
sS'unlock_bits'
p199
S'0x3F'
p200
ssS'build'
p201
(dp202
S'core'
p203
S'arduino'
p204
sS'mcu'
p205
S'atmega328p'
p206
sS'f_cpu'
p207
S'16000000L'
p208
sS'variant'
p209
S'eightanaloginputs'
p210
ssS'name'
p211
S'Arduino Nano w/ ATmega328'
p212
sS'upload'
p213
(dp214
S'speed'
p215
S'57600'
p216
sS'maximum_size'
p217
S'30720'
p218
sS'protocol'
p219
S'arduino'
p220
ssaa(lp221
S'nano'
p222
a(dp223
S'bootloader'
p224
(dp225
S'extended_fuses'
p226
S'0x00'
p227
sS'high_fuses'
p228
S'0xdd'
p229
sS'low_fuses'
p230
S'0xff'
p231
sS'lock_bits'
p232
S'0x0F'
p233
sS'file'
p234
S'ATmegaBOOT_168_diecimila.hex'
p235
sS'path'
p236
S'atmega'
p237
sS'unlock_bits'
p238
S'0x3F'
p239
ssS'build'
p240
(dp241
S'core'
p242
S'arduino'
p243
sS'mcu'
p244
S'atmega168'
p245
sS'f_cpu'
p246
S'16000000L'
p247
sS'variant'
p248
S'eightanaloginputs'
p249
ssS'name'
p250
S'Arduino Nano w/ ATmega168'
p251
sS'upload'
p252
(dp253
S'speed'
p254
S'19200'
p255
sS'maximum_size'
p256
S'14336'
p257
sS'protocol'
p258
S'arduino'
p259
ssaa(lp260
S'mega2560'
p261
a(dp262
S'bootloader'
p263
(dp264
S'extended_fuses'
p265
S'0xFD'
p266
sS'high_fuses'
p267
S'0xD8'
p268
sS'low_fuses'
p269
S'0xFF'
p270
sS'lock_bits'
p271
S'0x0F'
p272
sS'file'
p273
S'stk500boot_v2_mega2560.hex'
p274
sS'path'
p275
S'stk500v2'
p276
sS'unlock_bits'
p277
S'0x3F'
p278
ssS'build'
p279
(dp280
S'core'
p281
S'arduino'
p282
sS'mcu'
p283
S'atmega2560'
p284
sS'f_cpu'
p285
S'16000000L'
p286
sS'variant'
p287
S'mega'
p288
ssS'name'
p289
S'Arduino Mega 2560 or Mega ADK'
p290
sS'upload'
p291
(dp292
S'speed'
p293
S'115200'
p294
sS'maximum_size'
p295
S'258048'
p296
sS'protocol'
p297
S'wiring'
p298
ssaa(lp299
S'mega'
p300
a(dp301
S'bootloader'
p302
(dp303
S'extended_fuses'
p304
S'0xF5'
p305
sS'high_fuses'
p306
S'0xDA'
p307
sS'low_fuses'
p308
S'0xFF'
p309
sS'lock_bits'
p310
S'0x0F'
p311
sS'file'
p312
S'ATmegaBOOT_168_atmega1280.hex'
p313
sS'path'
p314
S'atmega'
p315
sS'unlock_bits'
p316
S'0x3F'
p317
ssS'build'
p318
(dp319
S'core'
p320
S'arduino'
p321
sS'mcu'
p322
S'atmega1280'
p323
sS'f_cpu'
p324
S'16000000L'
p325
sS'variant'
p326
S'mega'
p327
ssS'name'
p328
S'Arduino Mega (ATmega1280)'
p329
sS'upload'
p330
(dp331
S'speed'
p332
S'57600'
p333
sS'maximum_size'
p334
S'126976'
p335
sS'protocol'
p336
S'arduino'
p337
ssaa(lp338
S'leonardo'
p339
a(dp340
S'bootloader'
p341
(dp342
S'extended_fuses'
p343
S'0xcb'
p344
sS'high_fuses'
p345
S'0xd8'
p346
sS'low_fuses'
p347
S'0xff'
p348
sS'lock_bits'
p349
S'0x2F'
p350
sS'file'
p351
S'Caterina-Leonardo.hex'
p352
sS'path'
p353
S'caterina'
p354
sS'unlock_bits'
p355
S'0x3F'
p356
ssS'build'
p357
(dp358
S'core'
p359
S'arduino'
p360
sS'f_cpu'
p361
S'16000000L'
p362
sS'vid'
p363
S'0x2341'
p364
sS'pid'
p365
S'0x8036'
p366
sS'variant'
p367
S'leonardo'
p368
sS'mcu'
p369
S'atmega32u4'
p370
ssS'name'
p371
S'Arduino Leonardo'
p372
sS'upload'
p373
(dp374
S'speed'
p375
S'57600'
p376
sS'maximum_size'
p377
S'28672'
p378
sS'protocol'
p379
S'avr109'
p380
sS'disable_flushing'
p381
S'true'
p382
ssaa(lp383
S'esplora'
p384
a(dp385
S'bootloader'
p386
(dp387
S'extended_fuses'
p388
S'0xcb'
p389
sS'high_fuses'
p390
S'0xd8'
p391
sS'low_fuses'
p392
S'0xff'
p393
sS'lock_bits'
p394
S'0x2F'
p395
sS'file'
p396
S'Caterina-Esplora.hex'
p397
sS'path'
p398
S'caterina'
p399
sS'unlock_bits'
p400
S'0x3F'
p401
ssS'build'
p402
(dp403
S'core'
p404
S'arduino'
p405
sS'f_cpu'
p406
S'16000000L'
p407
sS'vid'
p408
S'0x2341'
p409
sS'pid'
p410
S'0x803C'
p411
sS'variant'
p412
S'leonardo'
p413
sS'mcu'
p414
S'atmega32u4'
p415
ssS'name'
p416
S'Arduino Esplora'
p417
sS'upload'
p418
(dp419
S'speed'
p420
S'57600'
p421
sS'maximum_size'
p422
S'28672'
p423
sS'protocol'
p424
S'avr109'
p425
sS'disable_flushing'
p426
S'true'
p427
ssaa(lp428
S'micro'
p429
a(dp430
S'bootloader'
p431
(dp432
S'extended_fuses'
p433
S'0xcb'
p434
sS'high_fuses'
p435
S'0xd8'
p436
sS'low_fuses'
p437
S'0xff'
p438
sS'lock_bits'
p439
S'0x2F'
p440
sS'file'
p441
S'Caterina-Micro.hex'
p442
sS'path'
p443
S'caterina'
p444
sS'unlock_bits'
p445
S'0x3F'
p446
ssS'build'
p447
(dp448
S'core'
p449
S'arduino'
p450
sS'f_cpu'
p451
S'16000000L'
p452
sS'vid'
p453
S'0x2341'
p454
sS'pid'
p455
S'0x8037'
p456
sS'variant'
p457
S'micro'
p458
sS'mcu'
p459
S'atmega32u4'
p460
ssS'name'
p461
S'Arduino Micro'
p462
sS'upload'
p463
(dp464
S'speed'
p465
S'57600'
p466
sS'maximum_size'
p467
S'28672'
p468
sS'protocol'
p469
S'avr109'
p470
sS'disable_flushing'
p471
S'true'
p472
ssaa(lp473
S'mini328'
p474
a(dp475
S'bootloader'
p476
(dp477
S'extended_fuses'
p478
S'0x05'
p479
sS'high_fuses'
p480
S'0xd8'
p481
sS'low_fuses'
p482
S'0xff'
p483
sS'lock_bits'
p484
S'0x0F'
p485
sS'file'
p486
S'optiboot_atmega328-Mini.hex'
p487
sS'path'
p488
S'optiboot'
p489
sS'unlock_bits'
p490
S'0x3F'
p491
ssS'build'
p492
(dp493
S'core'
p494
S'arduino'
p495
sS'mcu'
p496
S'atmega328p'
p497
sS'f_cpu'
p498
S'16000000L'
p499
sS'variant'
p500
S'eightanaloginputs'
p501
ssS'name'
p502
S'Arduino Mini w/ ATmega328'
p503
sS'upload'
p504
(dp505
S'speed'
p506
S'115200'
p507
sS'maximum_size'
p508
S'28672'
p509
sS'protocol'
p510
S'arduino'
p511
ssaa(lp512
S'mini'
p513
a(dp514
S'bootloader'
p515
(dp516
S'extended_fuses'
p517
S'0x00'
p518
sS'high_fuses'
p519
S'0xdd'
p520
sS'low_fuses'
p521
S'0xff'
p522
sS'lock_bits'
p523
S'0x0F'
p524
sS'file'
p525
S'ATmegaBOOT_168_ng.hex'
p526
sS'path'
p527
S'atmega'
p528
sS'unlock_bits'
p529
S'0x3F'
p530
ssS'build'
p531
(dp532
S'core'
p533
S'arduino'
p534
sS'mcu'
p535
S'atmega168'
p536
sS'f_cpu'
p537
S'16000000L'
p538
sS'variant'
p539
S'eightanaloginputs'
p540
ssS'name'
p541
S'Arduino Mini w/ ATmega168'
p542
sS'upload'
p543
(dp544
S'speed'
p545
S'19200'
p546
sS'maximum_size'
p547
S'14336'
p548
sS'protocol'
p549
S'arduino'
p550
ssaa(lp551
S'ethernet'
p552
a(dp553
S'bootloader'
p554
(dp555
S'extended_fuses'
p556
S'0x05'
p557
sS'high_fuses'
p558
S'0xde'
p559
sS'low_fuses'
p560
S'0xff'
p561
sS'lock_bits'
p562
S'0x0F'
p563
sS'file'
p564
S'optiboot_atmega328.hex'
p565
sS'path'
p566
S'optiboot'
p567
sS'unlock_bits'
p568
S'0x3F'
p569
ssS'build'
p570
(dp571
S'f_cpu'
p572
S'16000000L'
p573
sS'mcu'
p574
S'atmega328p'
p575
sS'variant'
p576
S'standard'
p577
sS'core'
p578
S'arduino'
p579
ssS'name'
p580
S'Arduino Ethernet'
p581
sS'upload'
p582
(dp583
S'speed'
p584
S'115200'
p585
sS'maximum_size'
p586
S'32256'
p587
sS'protocol'
p588
S'arduino'
p589
ssaa(lp590
S'fio'
p591
a(dp592
S'bootloader'
p593
(dp594
S'extended_fuses'
p595
S'0x05'
p596
sS'high_fuses'
p597
S'0xDA'
p598
sS'low_fuses'
p599
S'0xFF'
p600
sS'lock_bits'
p601
S'0x0F'
p602
sS'file'
p603
S'ATmegaBOOT_168_atmega328_pro_8MHz.hex'
p604
sS'path'
p605
S'arduino:atmega'
p606
sS'unlock_bits'
p607
S'0x3F'
p608
ssS'build'
p609
(dp610
S'core'
p611
S'arduino'
p612
sS'mcu'
p613
S'atmega328p'
p614
sS'f_cpu'
p615
S'8000000L'
p616
sS'variant'
p617
S'eightanaloginputs'
p618
ssS'name'
p619
S'Arduino Fio'
p620
sS'upload'
p621
(dp622
S'speed'
p623
S'57600'
p624
sS'maximum_size'
p625
S'30720'
p626
sS'protocol'
p627
S'arduino'
p628
ssaa(lp629
S'bt328'
p630
a(dp631
S'bootloader'
p632
(dp633
S'extended_fuses'
p634
S'0x05'
p635
sS'high_fuses'
p636
S'0xd8'
p637
sS'low_fuses'
p638
S'0xff'
p639
sS'lock_bits'
p640
S'0x0F'
p641
sS'file'
p642
S'ATmegaBOOT_168_atmega328_bt.hex'
p643
sS'path'
p644
S'bt'
p645
sS'unlock_bits'
p646
S'0x3F'
p647
ssS'build'
p648
(dp649
S'core'
p650
S'arduino'
p651
sS'mcu'
p652
S'atmega328p'
p653
sS'f_cpu'
p654
S'16000000L'
p655
sS'variant'
p656
S'eightanaloginputs'
p657
ssS'name'
p658
S'Arduino BT w/ ATmega328'
p659
sS'upload'
p660
(dp661
S'speed'
p662
S'19200'
p663
sS'maximum_size'
p664
S'28672'
p665
sS'protocol'
p666
S'arduino'
p667
sS'disable_flushing'
p668
S'true'
p669
ssaa(lp670
S'bt'
p671
a(dp672
S'bootloader'
p673
(dp674
S'extended_fuses'
p675
S'0x00'
p676
sS'high_fuses'
p677
S'0xdd'
p678
sS'low_fuses'
p679
S'0xff'
p680
sS'lock_bits'
p681
S'0x0F'
p682
sS'file'
p683
S'ATmegaBOOT_168.hex'
p684
sS'path'
p685
S'bt'
p686
sS'unlock_bits'
p687
S'0x3F'
p688
ssS'build'
p689
(dp690
S'core'
p691
S'arduino'
p692
sS'mcu'
p693
S'atmega168'
p694
sS'f_cpu'
p695
S'16000000L'
p696
sS'variant'
p697
S'eightanaloginputs'
p698
ssS'name'
p699
S'Arduino BT w/ ATmega168'
p700
sS'upload'
p701
(dp702
S'speed'
p703
S'19200'
p704
sS'maximum_size'
p705
S'14336'
p706
sS'protocol'
p707
S'arduino'
p708
sS'disable_flushing'
p709
S'true'
p710
ssaa(lp711
S'LilyPadUSB'
p712
a(dp713
S'bootloader'
p714
(dp715
S'extended_fuses'
p716
S'0xce'
p717
sS'high_fuses'
p718
S'0xd8'
p719
sS'low_fuses'
p720
S'0xff'
p721
sS'lock_bits'
p722
S'0x2F'
p723
sS'file'
p724
S'Caterina-LilyPadUSB.hex'
p725
sS'path'
p726
S'caterina-LilyPadUSB'
p727
sS'unlock_bits'
p728
S'0x3F'
p729
ssS'build'
p730
(dp731
S'core'
p732
S'arduino'
p733
sS'f_cpu'
p734
S'8000000L'
p735
sS'vid'
p736
S'0x1B4F'
p737
sS'pid'
p738
S'0x9208'
p739
sS'variant'
p740
S'leonardo'
p741
sS'mcu'
p742
S'atmega32u4'
p743
ssS'name'
p744
S'LilyPad Arduino USB'
p745
sS'upload'
p746
(dp747
S'speed'
p748
S'57600'
p749
sS'maximum_size'
p750
S'28672'
p751
sS'protocol'
p752
S'avr109'
p753
sS'disable_flushing'
p754
S'true'
p755
ssaa(lp756
S'lilypad328'
p757
a(dp758
S'bootloader'
p759
(dp760
S'extended_fuses'
p761
S'0x05'
p762
sS'high_fuses'
p763
S'0xDA'
p764
sS'low_fuses'
p765
S'0xFF'
p766
sS'lock_bits'
p767
S'0x0F'
p768
sS'file'
p769
S'ATmegaBOOT_168_atmega328_pro_8MHz.hex'
p770
sS'path'
p771
S'atmega'
p772
sS'unlock_bits'
p773
S'0x3F'
p774
ssS'build'
p775
(dp776
S'core'
p777
S'arduino'
p778
sS'mcu'
p779
S'atmega328p'
p780
sS'f_cpu'
p781
S'8000000L'
p782
sS'variant'
p783
S'standard'
p784
ssS'name'
p785
S'LilyPad Arduino w/ ATmega328'
p786
sS'upload'
p787
(dp788
S'speed'
p789
S'57600'
p790
sS'maximum_size'
p791
S'30720'
p792
sS'protocol'
p793
S'arduino'
p794
ssaa(lp795
S'lilypad'
p796
a(dp797
S'bootloader'
p798
(dp799
S'extended_fuses'
p800
S'0x00'
p801
sS'high_fuses'
p802
S'0xdd'
p803
sS'low_fuses'
p804
S'0xe2'
p805
sS'lock_bits'
p806
S'0x0F'
p807
sS'file'
p808
S'LilyPadBOOT_168.hex'
p809
sS'path'
p810
S'lilypad'
p811
sS'unlock_bits'
p812
S'0x3F'
p813
ssS'build'
p814
(dp815
S'core'
p816
S'arduino'
p817
sS'mcu'
p818
S'atmega168'
p819
sS'f_cpu'
p820
S'8000000L'
p821
sS'variant'
p822
S'standard'
p823
ssS'name'
p824
S'LilyPad Arduino w/ ATmega168'
p825
sS'upload'
p826
(dp827
S'speed'
p828
S'19200'
p829
sS'maximum_size'
p830
S'14336'
p831
sS'protocol'
p832
S'arduino'
p833
ssaa(lp834
S'pro5v328'
p835
a(dp836
S'bootloader'
p837
(dp838
S'extended_fuses'
p839
S'0x05'
p840
sS'high_fuses'
p841
S'0xDA'
p842
sS'low_fuses'
p843
S'0xFF'
p844
sS'lock_bits'
p845
S'0x0F'
p846
sS'file'
p847
S'ATmegaBOOT_168_atmega328.hex'
p848
sS'path'
p849
S'atmega'
p850
sS'unlock_bits'
p851
S'0x3F'
p852
ssS'build'
p853
(dp854
S'core'
p855
S'arduino'
p856
sS'mcu'
p857
S'atmega328p'
p858
sS'f_cpu'
p859
S'16000000L'
p860
sS'variant'
p861
S'standard'
p862
ssS'name'
p863
S'Arduino Pro or Pro Mini (5V, 16 MHz) w/ ATmega328'
p864
sS'upload'
p865
(dp866
S'speed'
p867
S'57600'
p868
sS'maximum_size'
p869
S'30720'
p870
sS'protocol'
p871
S'arduino'
p872
ssaa(lp873
S'pro5v'
p874
a(dp875
S'bootloader'
p876
(dp877
S'extended_fuses'
p878
S'0x00'
p879
sS'high_fuses'
p880
S'0xdd'
p881
sS'low_fuses'
p882
S'0xff'
p883
sS'lock_bits'
p884
S'0x0F'
p885
sS'file'
p886
S'ATmegaBOOT_168_diecimila.hex'
p887
sS'path'
p888
S'atmega'
p889
sS'unlock_bits'
p890
S'0x3F'
p891
ssS'build'
p892
(dp893
S'core'
p894
S'arduino'
p895
sS'mcu'
p896
S'atmega168'
p897
sS'f_cpu'
p898
S'16000000L'
p899
sS'variant'
p900
S'standard'
p901
ssS'name'
p902
S'Arduino Pro or Pro Mini (5V, 16 MHz) w/ ATmega168'
p903
sS'upload'
p904
(dp905
S'speed'
p906
S'19200'
p907
sS'maximum_size'
p908
S'14336'
p909
sS'protocol'
p910
S'arduino'
p911
ssaa(lp912
S'pro328'
p913
a(dp914
S'bootloader'
p915
(dp916
S'extended_fuses'
p917
S'0x05'
p918
sS'high_fuses'
p919
S'0xDA'
p920
sS'low_fuses'
p921
S'0xFF'
p922
sS'lock_bits'
p923
S'0x0F'
p924
sS'file'
p925
S'ATmegaBOOT_168_atmega328_pro_8MHz.hex'
p926
sS'path'
p927
S'atmega'
p928
sS'unlock_bits'
p929
S'0x3F'
p930
ssS'build'
p931
(dp932
S'core'
p933
S'arduino'
p934
sS'mcu'
p935
S'atmega328p'
p936
sS'f_cpu'
p937
S'8000000L'
p938
sS'variant'
p939
S'standard'
p940
ssS'name'
p941
S'Arduino Pro or Pro Mini (3.3V, 8 MHz) w/ ATmega328'
p942
sS'upload'
p943
(dp944
S'speed'
p945
S'57600'
p946
sS'maximum_size'
p947
S'30720'
p948
sS'protocol'
p949
S'arduino'
p950
ssaa(lp951
S'pro'
p952
a(dp953
S'bootloader'
p954
(dp955
S'extended_fuses'
p956
S'0x00'
p957
sS'high_fuses'
p958
S'0xdd'
p959
sS'low_fuses'
p960
S'0xc6'
p961
sS'lock_bits'
p962
S'0x0F'
p963
sS'file'
p964
S'ATmegaBOOT_168_pro_8MHz.hex'
p965
sS'path'
p966
S'atmega'
p967
sS'unlock_bits'
p968
S'0x3F'
p969
ssS'build'
p970
(dp971
S'core'
p972
S'arduino'
p973
sS'mcu'
p974
S'atmega168'
p975
sS'f_cpu'
p976
S'8000000L'
p977
sS'variant'
p978
S'standard'
p979
ssS'name'
p980
S'Arduino Pro or Pro Mini (3.3V, 8 MHz) w/ ATmega168'
p981
sS'upload'
p982
(dp983
S'speed'
p984
S'19200'
p985
sS'maximum_size'
p986
S'14336'
p987
sS'protocol'
p988
S'arduino'
p989
ssaa(lp990
S'atmega168'
p991
a(dp992
S'bootloader'
p993
(dp994
S'extended_fuses'
p995
S'0x00'
p996
sS'high_fuses'
p997
S'0xdd'
p998
sS'low_fuses'
p999
S'0xff'
p1000
sS'lock_bits'
p1001
S'0x0F'
p1002
sS'file'
p1003
S'ATmegaBOOT_168_ng.hex'
p1004
sS'path'
p1005
S'atmega'
p1006
sS'unlock_bits'
p1007
S'0x3F'
p1008
ssS'build'
p1009
(dp1010
S'core'
p1011
S'arduino'
p1012
sS'mcu'
p1013
S'atmega168'
p1014
sS'f_cpu'
p1015
S'16000000L'
p1016
sS'variant'
p1017
S'standard'
p1018
ssS'name'
p1019
S'Arduino NG or older w/ ATmega168'
p1020
sS'upload'
p1021
(dp1022
S'speed'
p1023
S'19200'
p1024
sS'maximum_size'
p1025
S'14336'
p1026
sS'protocol'
p1027
S'arduino'
p1028
ssaa(lp1029
S'atmega8'
p1030
a(dp1031
S'bootloader'
p1032
(dp1033
S'high_fuses'
p1034
S'0xca'
p1035
sS'low_fuses'
p1036
S'0xdf'
p1037
sS'lock_bits'
p1038
S'0x0F'
p1039
sS'file'
p1040
S'ATmegaBOOT-prod-firmware-2009-11-07.hex'
p1041
sS'path'
p1042
S'atmega8'
p1043
sS'unlock_bits'
p1044
S'0x3F'
p1045
ssS'build'
p1046
(dp1047
S'core'
p1048
S'arduino'
p1049
sS'mcu'
p1050
S'atmega8'
p1051
sS'f_cpu'
p1052
S'16000000L'
p1053
sS'variant'
p1054
S'standard'
p1055
ssS'name'
p1056
S'Arduino NG or older w/ ATmega8'
p1057
sS'upload'
p1058
(dp1059
S'speed'
p1060
S'19200'
p1061
sS'maximum_size'
p1062
S'7168'
p1063
sS'protocol'
p1064
S'arduino'
p1065
ssaa(lp1066
S'robotControl'
p1067
a(dp1068
S'bootloader'
p1069
(dp1070
S'extended_fuses'
p1071
S'0xcb'
p1072
sS'high_fuses'
p1073
S'0xd8'
p1074
sS'low_fuses'
p1075
S'0xff'
p1076
sS'lock_bits'
p1077
S'0x2F'
p1078
sS'file'
p1079
S'Caterina-Robot-Control.hex'
p1080
sS'path'
p1081
S'caterina-Arduino_Robot'
p1082
sS'unlock_bits'
p1083
S'0x3F'
p1084
ssS'build'
p1085
(dp1086
S'core'
p1087
S'robot'
p1088
sS'f_cpu'
p1089
S'16000000L'
p1090
sS'vid'
p1091
S'0x2341'
p1092
sS'pid'
p1093
S'0x8038'
p1094
sS'variant'
p1095
S'robot_control'
p1096
sS'mcu'
p1097
S'atmega32u4'
p1098
ssS'name'
p1099
S'Arduino Robot Control'
p1100
sS'upload'
p1101
(dp1102
S'speed'
p1103
S'57600'
p1104
sS'maximum_size'
p1105
S'28672'
p1106
sS'protocol'
p1107
S'avr109'
p1108
sS'disable_flushing'
p1109
S'true'
p1110
ssaa(lp1111
S'robotMotor'
p1112
a(dp1113
S'bootloader'
p1114
(dp1115
S'extended_fuses'
p1116
S'0xcb'
p1117
sS'high_fuses'
p1118
S'0xd8'
p1119
sS'low_fuses'
p1120
S'0xff'
p1121
sS'lock_bits'
p1122
S'0x2F'
p1123
sS'file'
p1124
S'Caterina-Robot-Motor.hex'
p1125
sS'path'
p1126
S'caterina-Arduino_Robot'
p1127
sS'unlock_bits'
p1128
S'0x3F'
p1129
ssS'build'
p1130
(dp1131
S'core'
p1132
S'robot'
p1133
sS'f_cpu'
p1134
S'16000000L'
p1135
sS'vid'
p1136
S'0x2341'
p1137
sS'pid'
p1138
S'0x8039'
p1139
sS'variant'
p1140
S'robot_motor'
p1141
sS'mcu'
p1142
S'atmega32u4'
p1143
ssS'name'
p1144
S'Arduino Robot Motor'
p1145
sS'upload'
p1146
(dp1147
S'speed'
p1148
S'57600'
p1149
sS'maximum_size'
p1150
S'28672'
p1151
sS'protocol'
p1152
S'avr109'
p1153
sS'disable_flushing'
p1154
S'true'
p1155
ssaatp1156
Rp1157
(dp1158
S'default'
p1159
S'uno'
p1160
sbtp1161
a(S'used_libs'
p1162
(lp1163
S'lib/Adafruit_NeoPixel-master'
p1164
aS'/usr/share/arduino/hardware/arduino/cores/arduino'
p1165
atp1166
a(S'make'
p1167
S'/usr/share/arduino/hardware/tools/avr/bin/make'
p1168
tp1169
a(S'arduino_libraries_dir'
p1170
S'/usr/share/arduino/libraries'
p1171
tp1172
a(S'cc'
p1173
S'/usr/share/arduino/hardware/tools/avr/bin/avr-gcc'
p1174
tp1175
a(S'cflags'
p1176
g2
(g3
g4
(lp1177
tp1178
Rp1179
tp1180
a(S'cxxflags'
p1181
g2
(g3
g4
(lp1182
S'-fno-exceptions'
p1183
atp1184
Rp1185
tp1186
a(S'arduino_variants_dir'
p1187
S'/usr/share/arduino/hardware/arduino/variants'
p1188
tp1189
a(S'stty'
p1190
S'/bin/stty'
p1191
tp1192
a(S'version.txt'
p1193
S'/usr/share/arduino/lib/version.txt'
p1194
tp1195
a(S'arduino_core_dir'
p1196
g1165
tp1197
a(S'boards.txt'
p1198
S'/usr/share/arduino/hardware/arduino/boards.txt'
p1199
tp1200
a(S'avrdude.conf'
p1201
S'/usr/share/arduino/hardware/tools/avrdude.conf'
p1202
tp1203
a(S'deps'
p1204
g2
(g3
g4
(lp1205
S'.build/uno/src/dependencies.d'
p1206
aS'.build/uno/arduino/dependencies.d'
p1207
aS'.build/uno/Adafruit_NeoPixel-master/dependencies.d'
p1208
atp1209
Rp1210
tp1211
a.